target datalayout = "e-m:e-p270:32:32-p271:32:32-p272:64:64-i64:64-i128:128-f80:128-n8:16:32:64-S128"
target triple = "x86_64-unknown-linux-gnu"

%"struct.ClipperLib::IntPoint" = type { i64, i64 }
%"struct.ClipperLib::OutPt" = type { i32, %"struct.ClipperLib::IntPoint", ptr, ptr }
%"struct.ClipperLib::OutRec" = type { i32, i8, i8, ptr, ptr, ptr, ptr }
%"struct.ClipperLib::TEdge" = type { %"struct.ClipperLib::IntPoint", %"struct.ClipperLib::IntPoint", %"struct.ClipperLib::IntPoint", double, i32, i32, i32, i32, i32, i32, ptr, ptr, ptr, ptr, ptr, ptr, ptr }
%"class.__gnu_cxx::__normal_iterator" = type { ptr }
%"class.ClipperLib::ClipperBase" = type { ptr, %"class.__gnu_cxx::__normal_iterator", %"class.std::vector.5", i8, %"class.std::vector.10", i8, i8, %"class.std::vector.15", ptr, %"class.std::priority_queue" }
%"class.std::vector.5" = type { %"struct.std::_Vector_base.6" }
%"struct.std::_Vector_base.6" = type { %"struct.std::_Vector_base<ClipperLib::LocalMinimum, std::allocator<ClipperLib::LocalMinimum>>::_Vector_impl" }
%"struct.std::_Vector_base<ClipperLib::LocalMinimum, std::allocator<ClipperLib::LocalMinimum>>::_Vector_impl" = type { %"struct.std::_Vector_base<ClipperLib::LocalMinimum, std::allocator<ClipperLib::LocalMinimum>>::_Vector_impl_data" }
%"struct.std::_Vector_base<ClipperLib::LocalMinimum, std::allocator<ClipperLib::LocalMinimum>>::_Vector_impl_data" = type { ptr, ptr, ptr }
%"class.std::vector.10" = type { %"struct.std::_Vector_base.11" }
%"struct.std::_Vector_base.11" = type { %"struct.std::_Vector_base<ClipperLib::TEdge *, std::allocator<ClipperLib::TEdge *>>::_Vector_impl" }
%"struct.std::_Vector_base<ClipperLib::TEdge *, std::allocator<ClipperLib::TEdge *>>::_Vector_impl" = type { %"struct.std::_Vector_base<ClipperLib::TEdge *, std::allocator<ClipperLib::TEdge *>>::_Vector_impl_data" }
%"struct.std::_Vector_base<ClipperLib::TEdge *, std::allocator<ClipperLib::TEdge *>>::_Vector_impl_data" = type { ptr, ptr, ptr }
%"class.std::vector.15" = type { %"struct.std::_Vector_base.16" }
%"struct.std::_Vector_base.16" = type { %"struct.std::_Vector_base<ClipperLib::OutRec *, std::allocator<ClipperLib::OutRec *>>::_Vector_impl" }
%"struct.std::_Vector_base<ClipperLib::OutRec *, std::allocator<ClipperLib::OutRec *>>::_Vector_impl" = type { %"struct.std::_Vector_base<ClipperLib::OutRec *, std::allocator<ClipperLib::OutRec *>>::_Vector_impl_data" }
%"struct.std::_Vector_base<ClipperLib::OutRec *, std::allocator<ClipperLib::OutRec *>>::_Vector_impl_data" = type { ptr, ptr, ptr }
%"class.std::priority_queue" = type <{ %"class.std::vector.20", %"struct.std::less", [7 x i8] }>
%"class.std::vector.20" = type { %"struct.std::_Vector_base.21" }
%"struct.std::_Vector_base.21" = type { %"struct.std::_Vector_base<long long, std::allocator<long long>>::_Vector_impl" }
%"struct.std::_Vector_base<long long, std::allocator<long long>>::_Vector_impl" = type { %"struct.std::_Vector_base<long long, std::allocator<long long>>::_Vector_impl_data" }
%"struct.std::_Vector_base<long long, std::allocator<long long>>::_Vector_impl_data" = type { ptr, ptr, ptr }
%"struct.std::less" = type { i8 }

; Function Attrs: mustprogress nounwind uwtable
define linkonce_odr hidden noundef nonnull align 8 dereferenceable(8) ptr @_ZNSt6vectorIPN10ClipperLib6OutRecESaIS2_EEixEm(ptr noundef nonnull align 8 dereferenceable(24) %this, i64 noundef %__n) #1 comdat align 2 {
entry:
  %this.addr = alloca ptr, align 8
  %__n.addr = alloca i64, align 8
  store ptr %this, ptr %this.addr, align 8
  store i64 %__n, ptr %__n.addr, align 8
  %this1 = load ptr, ptr %this.addr, align 8
  %_M_impl = getelementptr inbounds %"struct.std::_Vector_base.16", ptr %this1, i32 0, i32 0
  %_M_start = getelementptr inbounds %"struct.std::_Vector_base<ClipperLib::OutRec *, std::allocator<ClipperLib::OutRec *>>::_Vector_impl_data", ptr %_M_impl, i32 0, i32 0
  %0 = load ptr, ptr %_M_start, align 8
  %1 = load i64, ptr %__n.addr, align 8
  %add.ptr = getelementptr inbounds ptr, ptr %0, i64 %1
  ret ptr %add.ptr
}

; Function Attrs: mustprogress nounwind uwtable
define hidden noundef ptr @_ZN10ClipperLib7Clipper12GetLastOutPtEPNS_5TEdgeE(ptr noundef nonnull align 8 dereferenceable(135) %this, ptr noundef %e) #1 align 2 {
entry:
  %retval = alloca ptr, align 8
  %this.addr = alloca ptr, align 8
  %e.addr = alloca ptr, align 8
  %outRec = alloca ptr, align 8
  store ptr %this, ptr %this.addr, align 8
  store ptr %e, ptr %e.addr, align 8
  %this1 = load ptr, ptr %this.addr, align 8
  %vtable = load ptr, ptr %this1, align 8
  %vbase.offset.ptr = getelementptr i8, ptr %vtable, i64 -24
  %vbase.offset = load i64, ptr %vbase.offset.ptr, align 8
  %add.ptr = getelementptr inbounds i8, ptr %this1, i64 %vbase.offset
  %m_PolyOuts = getelementptr inbounds %"class.ClipperLib::ClipperBase", ptr %add.ptr, i32 0, i32 7
  %0 = load ptr, ptr %e.addr, align 8
  %OutIdx = getelementptr inbounds %"struct.ClipperLib::TEdge", ptr %0, i32 0, i32 9
  %1 = load i32, ptr %OutIdx, align 4
  %conv = sext i32 %1 to i64
  %call = call noundef nonnull align 8 dereferenceable(8) ptr @_ZNSt6vectorIPN10ClipperLib6OutRecESaIS2_EEixEm(ptr noundef nonnull align 8 dereferenceable(24) %m_PolyOuts, i64 noundef %conv) #13
  %2 = load ptr, ptr %call, align 8
  store ptr %2, ptr %outRec, align 8
  %3 = load ptr, ptr %e.addr, align 8
  %Side = getelementptr inbounds %"struct.ClipperLib::TEdge", ptr %3, i32 0, i32 5
  %4 = load i32, ptr %Side, align 4
  %cmp = icmp eq i32 %4, 1
  br i1 %cmp, label %if.then, label %if.else

if.then:                                          ; preds = %entry
  %5 = load ptr, ptr %outRec, align 8
  %Pts = getelementptr inbounds %"struct.ClipperLib::OutRec", ptr %5, i32 0, i32 5
  %6 = load ptr, ptr %Pts, align 8
  store ptr %6, ptr %retval, align 8
  br label %return

if.else:                                          ; preds = %entry
  %7 = load ptr, ptr %outRec, align 8
  %Pts2 = getelementptr inbounds %"struct.ClipperLib::OutRec", ptr %7, i32 0, i32 5
  %8 = load ptr, ptr %Pts2, align 8
  %Prev = getelementptr inbounds %"struct.ClipperLib::OutPt", ptr %8, i32 0, i32 3
  %9 = load ptr, ptr %Prev, align 8
  store ptr %9, ptr %retval, align 8
  br label %return

return:                                           ; preds = %if.else, %if.then
  %10 = load ptr, ptr %retval, align 8
  ret ptr %10
}