; Function Attrs: mustprogress nofree norecurse nosync nounwind willreturn memory(read, inaccessiblemem: none) uwtable
define hidden noundef ptr @_ZN10ClipperLib7Clipper12GetLastOutPtEPNS_5TEdgeE(ptr nocapture noundef nonnull readonly align 8 dereferenceable(135) %this, ptr nocapture noundef readonly %e) local_unnamed_addr #1 align 2 {
entry:
  %vtable = load ptr, ptr %this, align 8
  %vbase.offset.ptr = getelementptr i8, ptr %vtable, i64 -24
  %vbase.offset = load i64, ptr %vbase.offset.ptr, align 8
  %add.ptr = getelementptr inbounds i8, ptr %this, i64 %vbase.offset
  %m_PolyOuts = getelementptr inbounds i8, ptr %add.ptr, i64 80
  %OutIdx = getelementptr inbounds i8, ptr %e, i64 76
  %0 = load i32, ptr %OutIdx, align 4
  %conv = sext i32 %0 to i64
  %1 = load ptr, ptr %m_PolyOuts, align 8
  %add.ptr.i = getelementptr inbounds ptr, ptr %1, i64 %conv
  %2 = load ptr, ptr %add.ptr.i, align 8
  %Side = getelementptr inbounds i8, ptr %e, i64 60
  %3 = load i32, ptr %Side, align 4
  %cmp = icmp eq i32 %3, 1
  %Pts = getelementptr inbounds i8, ptr %2, i64 24
  br i1 %cmp, label %return, label %if.else

if.else:                                          ; preds = %entry
  %4 = load ptr, ptr %Pts, align 8
  %Prev = getelementptr inbounds i8, ptr %4, i64 32
  br label %return

return:                                           ; preds = %entry, %if.else
  %retval.0.in = phi ptr [ %Prev, %if.else ], [ %Pts, %entry ]
  %retval.0 = load ptr, ptr %retval.0.in, align 8
  ret ptr %retval.0
}